target datalayout = "e-m:e-p270:32:32-p271:32:32-p272:64:64-i64:64-i128:128-f80:128-n8:16:32:64-S128"
target triple = "x86_64-pc-linux-gnu"

%"class.pybind11::object" = type { %"class.pybind11::handle" }
%"class.pybind11::handle" = type { ptr }
%"class.pybind11::str" = type { %"class.pybind11::object" }
%"struct.pybind11::detail::void_type" = type { i8 }
%class.UserType = type { i32 }
%"class.pybind11::detail::type_caster_generic" = type { ptr, ptr, ptr }
%"class.pybind11::detail::argument_loader.525" = type { %"class.std::tuple.526" }
%"class.std::tuple.526" = type { %"struct.std::_Tuple_impl.527" }
%"struct.std::_Tuple_impl.527" = type { %"struct.std::_Head_base.528" }
%"struct.std::_Head_base.528" = type { %"class.pybind11::detail::type_caster.529" }
%"class.pybind11::detail::type_caster.529" = type { %"class.pybind11::detail::type_caster_base.530" }
%"class.pybind11::detail::type_caster_base.530" = type { %"class.pybind11::detail::type_caster_generic" }

@_ZTIN8pybind1120reference_cast_errorE = linkonce_odr hidden constant { ptr, ptr, ptr } { ptr getelementptr inbounds (ptr, ptr @_ZTVN10__cxxabiv120__si_class_type_infoE, i64 2), ptr @_ZTSN8pybind1120reference_cast_errorE, ptr @_ZTIN8pybind1117builtin_exceptionE }, comdat, align 8
@.str.172 = private unnamed_addr constant [12 x i8] c"IncType({})\00", align 1

; Function Attrs: mustprogress nounwind uwtable
define linkonce_odr hidden noundef nonnull align 8 dereferenceable(24) ptr @_ZNSt10_Head_baseILm0EN8pybind116detail11type_casterI7IncTypevEELb0EE7_M_headERS5_(ptr noundef nonnull align 8 dereferenceable(24) %0) #0 comdat align 2 {
  %2 = alloca ptr, align 8
  store ptr %0, ptr %2, align 8
  %3 = load ptr, ptr %2, align 8
  %4 = getelementptr inbounds %"struct.std::_Head_base.528", ptr %3, i32 0, i32 0
  ret ptr %4
}

; Function Attrs: mustprogress nounwind uwtable
define linkonce_odr hidden noundef nonnull align 8 dereferenceable(24) ptr @_ZNSt11_Tuple_implILm0EJN8pybind116detail11type_casterI7IncTypevEEEE7_M_headERS5_(ptr noundef nonnull align 8 dereferenceable(24) %0) #0 comdat align 2 {
  %2 = alloca ptr, align 8
  store ptr %0, ptr %2, align 8
  %3 = load ptr, ptr %2, align 8
  %4 = call noundef nonnull align 8 dereferenceable(24) ptr @_ZNSt10_Head_baseILm0EN8pybind116detail11type_casterI7IncTypevEELb0EE7_M_headERS5_(ptr noundef nonnull align 8 dereferenceable(24) %3) #4
  ret ptr %4
}

; Function Attrs: mustprogress nounwind uwtable
define linkonce_odr hidden noundef i32 @_ZNK8UserType5valueEv(ptr noundef nonnull align 4 dereferenceable(4) %0) #0 comdat align 2 {
  %2 = alloca ptr, align 8
  store ptr %0, ptr %2, align 8
  %3 = load ptr, ptr %2, align 8
  %4 = getelementptr inbounds %class.UserType, ptr %3, i32 0, i32 0
  %5 = load i32, ptr %4, align 4
  ret i32 %5
}

; Function Attrs: mustprogress uwtable
define linkonce_odr hidden void @_ZN8pybind118literalsli2_sEPKcm(ptr dead_on_unwind noalias writable sret(%"class.pybind11::str") align 8 %0, ptr noundef %1, i64 noundef %2) #1 comdat {
  %4 = alloca ptr, align 8
  %5 = alloca ptr, align 8
  %6 = alloca i64, align 8
  store ptr %0, ptr %4, align 8
  store ptr %1, ptr %5, align 8
  store i64 %2, ptr %6, align 8
  %7 = load ptr, ptr %5, align 8
  call void @_ZN8pybind113strC2ImTnNSt9enable_ifIXsr3std11is_integralIT_EE5valueEiE4typeELi0EEEPKcRKS3_(ptr noundef nonnull align 8 dereferenceable(8) %0, ptr noundef %7, ptr noundef nonnull align 8 dereferenceable(8) %6)
  ret void
}

; Function Attrs: mustprogress uwtable
define linkonce_odr hidden noundef nonnull align 4 dereferenceable(4) ptr @_ZN8pybind116detail16type_caster_baseI7IncTypeEcvRS2_Ev(ptr noundef nonnull align 8 dereferenceable(24) %0) #1 comdat align 2 personality ptr @__gxx_personality_v0 {
  %2 = alloca ptr, align 8
  %3 = alloca ptr, align 8
  %4 = alloca i32, align 4
  store ptr %0, ptr %2, align 8
  %5 = load ptr, ptr %2, align 8
  %6 = getelementptr inbounds %"class.pybind11::detail::type_caster_generic", ptr %5, i32 0, i32 2
  %7 = load ptr, ptr %6, align 8
  %8 = icmp ne ptr %7, null
  br i1 %8, label %16, label %9

9:                                                ; preds = %1
  %10 = call ptr @__cxa_allocate_exception(i64 16) #4
  invoke void @_ZN8pybind1120reference_cast_errorC2Ev(ptr noundef nonnull align 8 dereferenceable(16) %10)
          to label %11 unwind label %12

11:                                               ; preds = %9
  call void @__cxa_throw(ptr %10, ptr @_ZTIN8pybind1120reference_cast_errorE, ptr @_ZN8pybind1120reference_cast_errorD2Ev) #20
  unreachable

12:                                               ; preds = %9
  %13 = landingpad { ptr, i32 }
          cleanup
  %14 = extractvalue { ptr, i32 } %13, 0
  store ptr %14, ptr %3, align 8
  %15 = extractvalue { ptr, i32 } %13, 1
  store i32 %15, ptr %4, align 4
  call void @__cxa_free_exception(ptr %10) #4
  br label %19

16:                                               ; preds = %1
  %17 = getelementptr inbounds %"class.pybind11::detail::type_caster_generic", ptr %5, i32 0, i32 2
  %18 = load ptr, ptr %17, align 8
  ret ptr %18

19:                                               ; preds = %12
  %20 = load ptr, ptr %3, align 8
  %21 = load i32, ptr %4, align 4
  %22 = insertvalue { ptr, i32 } poison, ptr %20, 0
  %23 = insertvalue { ptr, i32 } %22, i32 %21, 1
  resume { ptr, i32 } %23
}

; Function Attrs: mustprogress nounwind uwtable
define linkonce_odr hidden noundef nonnull align 8 dereferenceable(24) ptr @_ZSt12__get_helperILm0EN8pybind116detail11type_casterI7IncTypevEEJEERT0_RSt11_Tuple_implIXT_EJS5_DpT1_EE(ptr noundef nonnull align 8 dereferenceable(24) %0) #0 comdat {
  %2 = alloca ptr, align 8
  store ptr %0, ptr %2, align 8
  %3 = load ptr, ptr %2, align 8
  %4 = call noundef nonnull align 8 dereferenceable(24) ptr @_ZNSt11_Tuple_implILm0EJN8pybind116detail11type_casterI7IncTypevEEEE7_M_headERS5_(ptr noundef nonnull align 8 dereferenceable(24) %3) #4
  ret ptr %4
}

; Function Attrs: mustprogress uwtable
define internal void @"_ZZL28pybind11_init_pybind11_testsRN8pybind117module_EENK3$_1clERK7IncType"(ptr dead_on_unwind noalias writable sret(%"class.pybind11::str") align 8 %0, ptr noundef nonnull align 1 dereferenceable(1) %1, ptr noundef nonnull align 4 dereferenceable(4) %2) #1 align 2 personality ptr @__gxx_personality_v0 {
  %4 = alloca ptr, align 8
  %5 = alloca ptr, align 8
  %6 = alloca ptr, align 8
  %7 = alloca %"class.pybind11::str", align 8
  %8 = alloca i32, align 4
  %9 = alloca ptr, align 8
  %10 = alloca i32, align 4
  store ptr %0, ptr %4, align 8
  store ptr %1, ptr %5, align 8
  store ptr %2, ptr %6, align 8
  call void @_ZN8pybind118literalsli2_sEPKcm(ptr dead_on_unwind writable sret(%"class.pybind11::str") align 8 %7, ptr noundef @.str.172, i64 noundef 11)
  %11 = load ptr, ptr %6, align 8
  %12 = call noundef i32 @_ZNK8UserType5valueEv(ptr noundef nonnull align 4 dereferenceable(4) %11)
  store i32 %12, ptr %8, align 4
  invoke void @_ZNK8pybind113str6formatIJiEEES0_DpOT_(ptr dead_on_unwind writable sret(%"class.pybind11::str") align 8 %0, ptr noundef nonnull align 8 dereferenceable(8) %7, ptr noundef nonnull align 4 dereferenceable(4) %8)
          to label %13 unwind label %14

13:                                               ; preds = %3
  call void @_ZN8pybind113strD2Ev(ptr noundef nonnull align 8 dereferenceable(8) %7) #4
  ret void

14:                                               ; preds = %3
  %15 = landingpad { ptr, i32 }
          cleanup
  %16 = extractvalue { ptr, i32 } %15, 0
  store ptr %16, ptr %9, align 8
  %17 = extractvalue { ptr, i32 } %15, 1
  store i32 %17, ptr %10, align 4
  call void @_ZN8pybind113strD2Ev(ptr noundef nonnull align 8 dereferenceable(8) %7) #4
  br label %18

18:                                               ; preds = %14
  %19 = load ptr, ptr %9, align 8
  %20 = load i32, ptr %10, align 4
  %21 = insertvalue { ptr, i32 } poison, ptr %19, 0
  %22 = insertvalue { ptr, i32 } %21, i32 %20, 1
  resume { ptr, i32 } %22
}

; Function Attrs: mustprogress uwtable
define linkonce_odr hidden noundef nonnull align 4 dereferenceable(4) ptr @_ZN8pybind116detail7cast_opIRK7IncTypeEENS0_11type_casterINS0_14intrinsic_typeIT_E4typeEvE12cast_op_typeINSt20add_rvalue_referenceIS7_E4typeEEEOSA_(ptr noundef nonnull align 8 dereferenceable(24) %0) #1 comdat {
  %2 = alloca ptr, align 8
  store ptr %0, ptr %2, align 8
  %3 = load ptr, ptr %2, align 8
  %4 = call noundef nonnull align 4 dereferenceable(4) ptr @_ZN8pybind116detail16type_caster_baseI7IncTypeEcvRS2_Ev(ptr noundef nonnull align 8 dereferenceable(24) %3)
  ret ptr %4
}

; Function Attrs: mustprogress nounwind uwtable
define linkonce_odr hidden noundef nonnull align 8 dereferenceable(24) ptr @_ZSt3getILm0EJN8pybind116detail11type_casterI7IncTypevEEEERNSt13tuple_elementIXT_ESt5tupleIJDpT0_EEE4typeERS9_(ptr noundef nonnull align 8 dereferenceable(24) %0) #0 comdat {
  %2 = alloca ptr, align 8
  store ptr %0, ptr %2, align 8
  %3 = load ptr, ptr %2, align 8
  %4 = call noundef nonnull align 8 dereferenceable(24) ptr @_ZSt12__get_helperILm0EN8pybind116detail11type_casterI7IncTypevEEJEERT0_RSt11_Tuple_implIXT_EJS5_DpT1_EE(ptr noundef nonnull align 8 dereferenceable(24) %3) #4
  ret ptr %4
}

; Function Attrs: mustprogress uwtable
define internal void @"_ZNO8pybind116detail15argument_loaderIJRK7IncTypeEE9call_implINS_3strERZL28pybind11_init_pybind11_testsRNS_7module_EE3$_1JLm0EENS0_9void_typeEEET_OT0_St16integer_sequenceImJXspT1_EEEOT2_"(ptr dead_on_unwind noalias writable sret(%"class.pybind11::str") align 8 %0, ptr noundef nonnull align 8 dereferenceable(24) %1, ptr noundef nonnull align 1 dereferenceable(1) %2, ptr noundef nonnull align 1 dereferenceable(1) %3) #1 align 2 {
  %5 = alloca ptr, align 8
  %6 = alloca ptr, align 8
  %7 = alloca ptr, align 8
  %8 = alloca ptr, align 8
  store ptr %0, ptr %5, align 8
  store ptr %1, ptr %6, align 8
  store ptr %2, ptr %7, align 8
  store ptr %3, ptr %8, align 8
  %9 = load ptr, ptr %6, align 8
  %10 = load ptr, ptr %7, align 8
  %11 = getelementptr inbounds %"class.pybind11::detail::argument_loader.525", ptr %9, i32 0, i32 0
  %12 = call noundef nonnull align 8 dereferenceable(24) ptr @_ZSt3getILm0EJN8pybind116detail11type_casterI7IncTypevEEEERNSt13tuple_elementIXT_ESt5tupleIJDpT0_EEE4typeERS9_(ptr noundef nonnull align 8 dereferenceable(24) %11) #4
  %13 = call noundef nonnull align 4 dereferenceable(4) ptr @_ZN8pybind116detail7cast_opIRK7IncTypeEENS0_11type_casterINS0_14intrinsic_typeIT_E4typeEvE12cast_op_typeINSt20add_rvalue_referenceIS7_E4typeEEEOSA_(ptr noundef nonnull align 8 dereferenceable(24) %12)
  call void @"_ZZL28pybind11_init_pybind11_testsRN8pybind117module_EENK3$_1clERK7IncType"(ptr dead_on_unwind writable sret(%"class.pybind11::str") align 8 %0, ptr noundef nonnull align 1 dereferenceable(1) %10, ptr noundef nonnull align 4 dereferenceable(4) %13)
  ret void
}

; Function Attrs: mustprogress uwtable
define internal void @"_ZNO8pybind116detail15argument_loaderIJRK7IncTypeEE4callINS_3strENS0_9void_typeERZL28pybind11_init_pybind11_testsRNS_7module_EE3$_1EENSt9enable_ifIXntsr3std7is_voidIT_EE5valueESE_E4typeEOT1_"(ptr dead_on_unwind noalias writable sret(%"class.pybind11::str") align 8 %0, ptr noundef nonnull align 8 dereferenceable(24) %1, ptr noundef nonnull align 1 dereferenceable(1) %2) #1 align 2 {
  %4 = alloca ptr, align 8
  %5 = alloca ptr, align 8
  %6 = alloca ptr, align 8
  %7 = alloca %"struct.pybind11::detail::void_type", align 1
  store ptr %0, ptr %4, align 8
  store ptr %1, ptr %5, align 8
  store ptr %2, ptr %6, align 8
  %8 = load ptr, ptr %5, align 8
  %9 = load ptr, ptr %6, align 8
  call void @"_ZNO8pybind116detail15argument_loaderIJRK7IncTypeEE9call_implINS_3strERZL28pybind11_init_pybind11_testsRNS_7module_EE3$_1JLm0EENS0_9void_typeEEET_OT0_St16integer_sequenceImJXspT1_EEEOT2_"(ptr dead_on_unwind writable sret(%"class.pybind11::str") align 8 %0, ptr noundef nonnull align 8 dereferenceable(24) %8, ptr noundef nonnull align 1 dereferenceable(1) %9, ptr noundef nonnull align 1 dereferenceable(1) %7)
  ret void
}